target datalayout = "e-m:e-p270:32:32-p271:32:32-p272:64:64-i64:64-i128:128-f80:128-n8:16:32:64-S128"
target triple = "x86_64-unknown-linux-gnu"

%"class.std::__cxx11::basic_string" = type { %"struct.std::__cxx11::basic_string<char>::_Alloc_hider", i64, %union.anon }
%"struct.std::__cxx11::basic_string<char>::_Alloc_hider" = type { ptr }
%union.anon = type { i64, [8 x i8] }
%"class.std::__cxx11::list" = type { %"class.std::__cxx11::_List_base" }
%"class.std::__cxx11::_List_base" = type { %"struct.std::__cxx11::_List_base<net::ReliableQuicStream::PendingData, std::allocator<net::ReliableQuicStream::PendingData>>::_List_impl" }
%"struct.std::__cxx11::_List_base<net::ReliableQuicStream::PendingData, std::allocator<net::ReliableQuicStream::PendingData>>::_List_impl" = type { %"struct.std::__detail::_List_node_header" }
%"struct.std::__detail::_List_node_header" = type { %"struct.std::__detail::_List_node_base", i64 }
%"struct.std::__detail::_List_node_base" = type { ptr, ptr }
%"class.net::QuicStreamSequencer" = type <{ ptr, ptr, %"class.net::QuicStreamSequencerBuffer", i64, i8, [3 x i8], i32, i32, [4 x i8], ptr, i8, [7 x i8] }>
%"class.net::QuicStreamSequencerBuffer" = type { i64, i64, i64, %"class.std::__cxx11::list.0", i8, %"class.std::unique_ptr", i64, %"class.std::map" }
%"class.std::__cxx11::list.0" = type { %"class.std::__cxx11::_List_base.1" }
%"class.std::__cxx11::_List_base.1" = type { %"struct.std::__cxx11::_List_base<net::QuicStreamSequencerBuffer::Gap, std::allocator<net::QuicStreamSequencerBuffer::Gap>>::_List_impl" }
%"struct.std::__cxx11::_List_base<net::QuicStreamSequencerBuffer::Gap, std::allocator<net::QuicStreamSequencerBuffer::Gap>>::_List_impl" = type { %"struct.std::__detail::_List_node_header" }
%"class.std::unique_ptr" = type { %"struct.std::__uniq_ptr_data" }
%"struct.std::__uniq_ptr_data" = type { %"class.std::__uniq_ptr_impl" }
%"class.std::__uniq_ptr_impl" = type { %"class.std::tuple" }
%"class.std::tuple" = type { %"struct.std::_Tuple_impl" }
%"struct.std::_Tuple_impl" = type { %"struct.std::_Head_base.6" }
%"struct.std::_Head_base.6" = type { ptr }
%"class.std::map" = type { %"class.std::_Rb_tree" }
%"class.std::_Rb_tree" = type { %"struct.std::_Rb_tree<unsigned long, std::pair<const unsigned long, net::QuicStreamSequencerBuffer::FrameInfo>, std::_Select1st<std::pair<const unsigned long, net::QuicStreamSequencerBuffer::FrameInfo>>, std::less<unsigned long>>::_Rb_tree_impl" }
%"struct.std::_Rb_tree<unsigned long, std::pair<const unsigned long, net::QuicStreamSequencerBuffer::FrameInfo>, std::_Select1st<std::pair<const unsigned long, net::QuicStreamSequencerBuffer::FrameInfo>>, std::less<unsigned long>>::_Rb_tree_impl" = type { %"struct.std::_Rb_tree_key_compare", %"struct.std::_Rb_tree_header" }
%"struct.std::_Rb_tree_key_compare" = type { %"struct.std::less" }
%"struct.std::less" = type { i8 }
%"struct.std::_Rb_tree_header" = type { %"struct.std::_Rb_tree_node_base", i64 }
%"struct.std::_Rb_tree_node_base" = type { i32, ptr, ptr, ptr }
%"class.net::QuicFlowController" = type { ptr, i32, i32, i64, i64, i64, i64, i64, i64, i64, i8, i64, %"class.net::QuicTime" }
%"class.net::QuicTime" = type { i64 }
%"struct.std::__detail::_Hash_node_base" = type { ptr }
%"struct.std::__detail::_Prime_rehash_policy" = type { float, i64 }
%"class.net::ReliableQuicStream" = type <{ ptr, %"class.std::__cxx11::list", i64, %"class.net::QuicStreamSequencer", i32, [4 x i8], ptr, i64, i64, i32, i32, i8, i8, i8, i8, i8, i8, i8, i8, i32, [4 x i8], %"class.net::QuicFlowController", ptr, i8, [7 x i8] }>
%"class.std::allocator.10" = type { i8 }
%"class.net::QuicSession" = type <{ %"class.net::QuicConnectionVisitorInterface", %"class.std::map.35", ptr, %"class.std::vector", %"class.net::QuicConfig", i64, i64, %"class.base::SmallMap", %"class.base::SmallMap.59", i32, [4 x i8], %"class.std::unordered_set", %"class.std::unordered_set", %"class.net::QuicWriteBlockedList", i32, [4 x i8], i64, i64, i64, i32, [4 x i8], %"class.net::QuicFlowController", i32, [4 x i8] }>
%"class.net::QuicConnectionVisitorInterface" = type { ptr }
%"class.std::map.35" = type { %"class.std::_Rb_tree.36" }
%"class.std::_Rb_tree.36" = type { %"struct.std::_Rb_tree<unsigned int, std::pair<const unsigned int, unsigned long>, std::_Select1st<std::pair<const unsigned int, unsigned long>>, std::less<unsigned int>>::_Rb_tree_impl" }
%"struct.std::_Rb_tree<unsigned int, std::pair<const unsigned int, unsigned long>, std::_Select1st<std::pair<const unsigned int, unsigned long>>, std::less<unsigned int>>::_Rb_tree_impl" = type { %"struct.std::_Rb_tree_key_compare.40", %"struct.std::_Rb_tree_header" }
%"struct.std::_Rb_tree_key_compare.40" = type { %"struct.std::less.41" }
%"struct.std::less.41" = type { i8 }
%"class.std::vector" = type { %"struct.std::_Vector_base" }
%"struct.std::_Vector_base" = type { %"struct.std::_Vector_base<net::ReliableQuicStream *, std::allocator<net::ReliableQuicStream *>>::_Vector_impl" }
%"struct.std::_Vector_base<net::ReliableQuicStream *, std::allocator<net::ReliableQuicStream *>>::_Vector_impl" = type { %"struct.std::_Vector_base<net::ReliableQuicStream *, std::allocator<net::ReliableQuicStream *>>::_Vector_impl_data" }
%"struct.std::_Vector_base<net::ReliableQuicStream *, std::allocator<net::ReliableQuicStream *>>::_Vector_impl_data" = type { ptr, ptr, ptr }
%"class.net::QuicConfig" = type { %"class.net::QuicTime::Delta", %"class.net::QuicTime::Delta", i64, %"class.net::QuicFixedTagVector", %"class.net::QuicNegotiableUint32", %"class.net::QuicNegotiableUint32", %"class.net::QuicNegotiableUint32", %"class.net::QuicFixedUint32", %"class.net::QuicFixedUint32", %"class.net::QuicFixedUint32", %"class.net::QuicFixedUint32", %"class.net::QuicFixedUint32", %"class.net::QuicFixedUint32", %"class.net::QuicNegotiableUint32", %"class.net::QuicFixedUint32", %"class.net::QuicFixedIPEndPoint", %"class.net::QuicFixedUint32" }
%"class.net::QuicTime::Delta" = type { %"class.base::TimeDelta", i64 }
%"class.base::TimeDelta" = type { i64 }
%"class.net::QuicFixedTagVector" = type <{ %"class.net::QuicConfigValue", %"class.std::vector.46", i8, [7 x i8], %"class.std::vector.46", i8, [7 x i8] }>
%"class.net::QuicConfigValue" = type { ptr, i32, i32 }
%"class.std::vector.46" = type { %"struct.std::_Vector_base.47" }
%"struct.std::_Vector_base.47" = type { %"struct.std::_Vector_base<unsigned int, std::allocator<unsigned int>>::_Vector_impl" }
%"struct.std::_Vector_base<unsigned int, std::allocator<unsigned int>>::_Vector_impl" = type { %"struct.std::_Vector_base<unsigned int, std::allocator<unsigned int>>::_Vector_impl_data" }
%"struct.std::_Vector_base<unsigned int, std::allocator<unsigned int>>::_Vector_impl_data" = type { ptr, ptr, ptr }
%"class.net::QuicNegotiableUint32" = type { %"class.net::QuicNegotiableValue.base", i32, i32, i32 }
%"class.net::QuicNegotiableValue.base" = type <{ %"class.net::QuicConfigValue", i8 }>
%"class.net::QuicFixedIPEndPoint" = type <{ %"class.net::QuicConfigValue", %"class.net::IPEndPoint", i8, [7 x i8], %"class.net::IPEndPoint", i8, [7 x i8] }>
%"class.net::IPEndPoint" = type <{ %"class.net::IPAddress", i16, [6 x i8] }>
%"class.net::IPAddress" = type { %"class.std::vector.51" }
%"class.std::vector.51" = type { %"struct.std::_Vector_base.52" }
%"struct.std::_Vector_base.52" = type { %"struct.std::_Vector_base<unsigned char, std::allocator<unsigned char>>::_Vector_impl" }
%"struct.std::_Vector_base<unsigned char, std::allocator<unsigned char>>::_Vector_impl" = type { %"struct.std::_Vector_base<unsigned char, std::allocator<unsigned char>>::_Vector_impl_data" }
%"struct.std::_Vector_base<unsigned char, std::allocator<unsigned char>>::_Vector_impl_data" = type { ptr, ptr, ptr }
%"class.net::QuicFixedUint32" = type <{ %"class.net::QuicConfigValue", i32, i8, [3 x i8], i32, i8, [3 x i8] }>
%"class.base::SmallMap" = type { i32, %"class.base::internal::SmallMapDefaultInit", [3 x i8], %union.anon.56 }
%"class.base::internal::SmallMapDefaultInit" = type { i8 }
%union.anon.56 = type { %"class.base::ManualConstructor.57" }
%"class.base::ManualConstructor.57" = type { %"class.base::AlignedMemory.58" }
%"class.base::AlignedMemory.58" = type { [56 x i8] }
%"class.base::SmallMap.59" = type { i32, %"class.base::internal::SmallMapDefaultInit", [3 x i8], %union.anon.60 }
%union.anon.60 = type { [10 x %"class.base::ManualConstructor"] }
%"class.base::ManualConstructor" = type { %"class.base::AlignedMemory" }
%"class.base::AlignedMemory" = type { [16 x i8] }
%"class.std::unordered_set" = type { %"class.std::_Hashtable.61" }
%"class.std::_Hashtable.61" = type { ptr, i64, %"struct.std::__detail::_Hash_node_base", i64, %"struct.std::__detail::_Prime_rehash_policy", ptr }
%"class.net::QuicWriteBlockedList" = type <{ %"class.net::PriorityWriteScheduler", [8 x i32], [8 x i32], i8, i8, i8, [5 x i8] }>
%"class.net::PriorityWriteScheduler" = type { %"class.net::WriteScheduler", i64, [8 x %"struct.net::PriorityWriteScheduler<unsigned int>::PriorityInfo"], %"class.std::unordered_map.83" }
%"class.net::WriteScheduler" = type { ptr }
%"struct.net::PriorityWriteScheduler<unsigned int>::PriorityInfo" = type { %"class.std::deque.77", i64 }
%"class.std::deque.77" = type { %"class.std::_Deque_base.78" }
%"class.std::_Deque_base.78" = type { %"struct.std::_Deque_base<net::PriorityWriteScheduler<unsigned int>::StreamInfo *, std::allocator<net::PriorityWriteScheduler<unsigned int>::StreamInfo *>>::_Deque_impl" }
%"struct.std::_Deque_base<net::PriorityWriteScheduler<unsigned int>::StreamInfo *, std::allocator<net::PriorityWriteScheduler<unsigned int>::StreamInfo *>>::_Deque_impl" = type { %"struct.std::_Deque_base<net::PriorityWriteScheduler<unsigned int>::StreamInfo *, std::allocator<net::PriorityWriteScheduler<unsigned int>::StreamInfo *>>::_Deque_impl_data" }
%"struct.std::_Deque_base<net::PriorityWriteScheduler<unsigned int>::StreamInfo *, std::allocator<net::PriorityWriteScheduler<unsigned int>::StreamInfo *>>::_Deque_impl_data" = type { ptr, i64, %"struct.std::_Deque_iterator.82", %"struct.std::_Deque_iterator.82" }
%"struct.std::_Deque_iterator.82" = type { ptr, ptr, ptr, ptr }
%"class.std::unordered_map.83" = type { %"class.std::_Hashtable.84" }
%"class.std::_Hashtable.84" = type { ptr, i64, %"struct.std::__detail::_Hash_node_base", i64, %"struct.std::__detail::_Prime_rehash_policy", ptr }

@.str.2 = private unnamed_addr constant [35 x i8] c"Promise headers received by server\00", align 1
@.str.7 = private unnamed_addr constant [50 x i8] c"basic_string: construction from null is not valid\00", align 1

; Function Attrs: mustprogress nounwind uwtable
define linkonce_odr dso_local noundef i64 @_ZNSt11char_traitsIcE6lengthEPKc(ptr noundef %__s) #3 comdat align 2 {
entry:
  %__s.addr = alloca ptr, align 8
  store ptr %__s, ptr %__s.addr, align 8
  %0 = load ptr, ptr %__s.addr, align 8
  %call = call i64 @strlen(ptr noundef %0) #9
  ret i64 %call
}

; Function Attrs: mustprogress nounwind uwtable
define linkonce_odr dso_local void @_ZNSt7__cxx1112basic_stringIcSt11char_traitsIcESaIcEE12_Alloc_hiderD2Ev(ptr noundef nonnull align 8 dereferenceable(8) %this) unnamed_addr #3 comdat align 2 {
entry:
  %this.addr = alloca ptr, align 8
  store ptr %this, ptr %this.addr, align 8
  %this1 = load ptr, ptr %this.addr, align 8
  call void @_ZNSaIcED2Ev(ptr noundef nonnull align 1 dereferenceable(1) %this1) #9
  ret void
}

; Function Attrs: mustprogress uwtable
define linkonce_odr dso_local void @_ZNSt7__cxx1112basic_stringIcSt11char_traitsIcESaIcEEC2IS3_EEPKcRKS3_(ptr noundef nonnull align 8 dereferenceable(32) %this, ptr noundef %__s, ptr noundef nonnull align 1 dereferenceable(1) %__a) unnamed_addr #0 comdat align 2 personality ptr @__gxx_personality_v0 {
entry:
  %this.addr = alloca ptr, align 8
  %__s.addr = alloca ptr, align 8
  %__a.addr = alloca ptr, align 8
  %exn.slot = alloca ptr, align 8
  %ehselector.slot = alloca i32, align 4
  %__end = alloca ptr, align 8
  store ptr %this, ptr %this.addr, align 8
  store ptr %__s, ptr %__s.addr, align 8
  store ptr %__a, ptr %__a.addr, align 8
  %this1 = load ptr, ptr %this.addr, align 8
  %_M_dataplus = getelementptr inbounds %"class.std::__cxx11::basic_string", ptr %this1, i32 0, i32 0
  %call = call noundef ptr @_ZNSt7__cxx1112basic_stringIcSt11char_traitsIcESaIcEE13_M_local_dataEv(ptr noundef nonnull align 8 dereferenceable(32) %this1)
  %0 = load ptr, ptr %__a.addr, align 8
  call void @_ZNSt7__cxx1112basic_stringIcSt11char_traitsIcESaIcEE12_Alloc_hiderC1EPcRKS3_(ptr noundef nonnull align 8 dereferenceable(8) %_M_dataplus, ptr noundef %call, ptr noundef nonnull align 1 dereferenceable(1) %0)
  %1 = load ptr, ptr %__s.addr, align 8
  %cmp = icmp eq ptr %1, null
  br i1 %cmp, label %if.then, label %if.end

if.then:                                          ; preds = %entry
  invoke void @_ZSt19__throw_logic_errorPKc(ptr noundef @.str.7) #11
          to label %invoke.cont unwind label %lpad

invoke.cont:                                      ; preds = %if.then
  unreachable

lpad:                                             ; preds = %invoke.cont2, %if.end, %if.then
  %2 = landingpad { ptr, i32 }
          cleanup
  %3 = extractvalue { ptr, i32 } %2, 0
  store ptr %3, ptr %exn.slot, align 8
  %4 = extractvalue { ptr, i32 } %2, 1
  store i32 %4, ptr %ehselector.slot, align 4
  call void @_ZNSt7__cxx1112basic_stringIcSt11char_traitsIcESaIcEE12_Alloc_hiderD2Ev(ptr noundef nonnull align 8 dereferenceable(8) %_M_dataplus) #9
  br label %eh.resume

if.end:                                           ; preds = %entry
  %5 = load ptr, ptr %__s.addr, align 8
  %6 = load ptr, ptr %__s.addr, align 8
  %call3 = invoke noundef i64 @_ZNSt11char_traitsIcE6lengthEPKc(ptr noundef %6)
          to label %invoke.cont2 unwind label %lpad

invoke.cont2:                                     ; preds = %if.end
  %add.ptr = getelementptr inbounds i8, ptr %5, i64 %call3
  store ptr %add.ptr, ptr %__end, align 8
  %7 = load ptr, ptr %__s.addr, align 8
  %8 = load ptr, ptr %__end, align 8
  invoke void @_ZNSt7__cxx1112basic_stringIcSt11char_traitsIcESaIcEE12_M_constructIPKcEEvT_S8_St20forward_iterator_tag(ptr noundef nonnull align 8 dereferenceable(32) %this1, ptr noundef %7, ptr noundef %8)
          to label %invoke.cont4 unwind label %lpad

invoke.cont4:                                     ; preds = %invoke.cont2
  ret void

eh.resume:                                        ; preds = %lpad
  %exn = load ptr, ptr %exn.slot, align 8
  %sel = load i32, ptr %ehselector.slot, align 4
  %lpad.val = insertvalue { ptr, i32 } poison, ptr %exn, 0
  %lpad.val5 = insertvalue { ptr, i32 } %lpad.val, i32 %sel, 1
  resume { ptr, i32 } %lpad.val5
}

; Function Attrs: mustprogress nounwind uwtable
define linkonce_odr dso_local noundef ptr @_ZN3net11QuicSession10connectionEv(ptr noundef nonnull align 8 dereferenceable(2044) %this) #3 comdat align 2 {
entry:
  %this.addr = alloca ptr, align 8
  store ptr %this, ptr %this.addr, align 8
  %this1 = load ptr, ptr %this.addr, align 8
  %connection_ = getelementptr inbounds %"class.net::QuicSession", ptr %this1, i32 0, i32 2
  %0 = load ptr, ptr %connection_, align 8
  ret ptr %0
}

; Function Attrs: mustprogress nounwind uwtable
define linkonce_odr dso_local noundef ptr @_ZN3net18ReliableQuicStream7sessionEv(ptr noundef nonnull align 8 dereferenceable(377) %this) #3 comdat align 2 {
entry:
  %this.addr = alloca ptr, align 8
  store ptr %this, ptr %this.addr, align 8
  %this1 = load ptr, ptr %this.addr, align 8
  %session_ = getelementptr inbounds %"class.net::ReliableQuicStream", ptr %this1, i32 0, i32 6
  %0 = load ptr, ptr %session_, align 8
  ret ptr %0
}

; Function Attrs: mustprogress uwtable
define dso_local void @_ZN3net14QuicSpdyStream19OnPromiseHeaderListEjmRKNS_14QuicHeaderListE(ptr noundef nonnull align 8 dereferenceable(664) %this, i32 noundef %0, i64 noundef %1, ptr noundef nonnull align 8 dereferenceable(96) %2) unnamed_addr #0 align 2 personality ptr @__gxx_personality_v0 {
entry:
  %this.addr = alloca ptr, align 8
  %.addr = alloca i32, align 4
  %.addr1 = alloca i64, align 8
  %.addr2 = alloca ptr, align 8
  %ref.tmp = alloca %"class.std::__cxx11::basic_string", align 8
  %ref.tmp5 = alloca %"class.std::allocator.10", align 1
  %exn.slot = alloca ptr, align 8
  %ehselector.slot = alloca i32, align 4
  store ptr %this, ptr %this.addr, align 8
  store i32 %0, ptr %.addr, align 4
  store i64 %1, ptr %.addr1, align 8
  store ptr %2, ptr %.addr2, align 8
  %this3 = load ptr, ptr %this.addr, align 8
  %call = call noundef ptr @_ZN3net18ReliableQuicStream7sessionEv(ptr noundef nonnull align 8 dereferenceable(377) %this3)
  %call4 = call noundef ptr @_ZN3net11QuicSession10connectionEv(ptr noundef nonnull align 8 dereferenceable(2044) %call)
  call void @_ZNSaIcEC1Ev(ptr noundef nonnull align 1 dereferenceable(1) %ref.tmp5) #9
  invoke void @_ZNSt7__cxx1112basic_stringIcSt11char_traitsIcESaIcEEC2IS3_EEPKcRKS3_(ptr noundef nonnull align 8 dereferenceable(32) %ref.tmp, ptr noundef @.str.2, ptr noundef nonnull align 1 dereferenceable(1) %ref.tmp5)
          to label %invoke.cont unwind label %lpad

invoke.cont:                                      ; preds = %entry
  %vtable = load ptr, ptr %call4, align 8
  %vfn = getelementptr inbounds ptr, ptr %vtable, i64 32
  %3 = load ptr, ptr %vfn, align 8
  invoke void %3(ptr noundef nonnull align 8 dereferenceable(3372) %call4, i32 noundef 56, ptr noundef nonnull align 8 dereferenceable(32) %ref.tmp, i32 noundef 1)
          to label %invoke.cont7 unwind label %lpad6

invoke.cont7:                                     ; preds = %invoke.cont
  call void @_ZNSt7__cxx1112basic_stringIcSt11char_traitsIcESaIcEED1Ev(ptr noundef nonnull align 8 dereferenceable(32) %ref.tmp) #9
  call void @_ZNSaIcED1Ev(ptr noundef nonnull align 1 dereferenceable(1) %ref.tmp5) #9
  ret void

lpad:                                             ; preds = %entry
  %4 = landingpad { ptr, i32 }
          cleanup
  %5 = extractvalue { ptr, i32 } %4, 0
  store ptr %5, ptr %exn.slot, align 8
  %6 = extractvalue { ptr, i32 } %4, 1
  store i32 %6, ptr %ehselector.slot, align 4
  br label %ehcleanup

lpad6:                                            ; preds = %invoke.cont
  %7 = landingpad { ptr, i32 }
          cleanup
  %8 = extractvalue { ptr, i32 } %7, 0
  store ptr %8, ptr %exn.slot, align 8
  %9 = extractvalue { ptr, i32 } %7, 1
  store i32 %9, ptr %ehselector.slot, align 4
  call void @_ZNSt7__cxx1112basic_stringIcSt11char_traitsIcESaIcEED1Ev(ptr noundef nonnull align 8 dereferenceable(32) %ref.tmp) #9
  br label %ehcleanup

ehcleanup:                                        ; preds = %lpad6, %lpad
  call void @_ZNSaIcED1Ev(ptr noundef nonnull align 1 dereferenceable(1) %ref.tmp5) #9
  br label %eh.resume

eh.resume:                                        ; preds = %ehcleanup
  %exn = load ptr, ptr %exn.slot, align 8
  %sel = load i32, ptr %ehselector.slot, align 4
  %lpad.val = insertvalue { ptr, i32 } poison, ptr %exn, 0
  %lpad.val8 = insertvalue { ptr, i32 } %lpad.val, i32 %sel, 1
  resume { ptr, i32 } %lpad.val8
}